(lp0
ccopy_reg
_reconstructor
p1
(cgoogle.cloud.speech.result
Result
p2
cdill.dill
_load_type
p3
(S'ObjectType'
p4
tp5
Rp6
Ntp7
Rp8
(dp9
S'alternatives'
p10
(lp11
g1
(cgoogle.cloud.speech.alternative
Alternative
p12
g6
Ntp13
Rp14
(dp15
S'_confidence'
p16
F0.3773023784160614
sS'_transcript'
p17
Vtiger
p18
sbasbag1
(g2
g6
Ntp19
Rp20
(dp21
g10
(lp22
g1
(g12
g6
Ntp23
Rp24
(dp25
g16
F0.7004252076148987
sg17
V rose Carnation tulip
p26
sbasbag1
(g2
g6
Ntp27
Rp28
(dp29
g10
(lp30
g1
(g12
g6
Ntp31
Rp32
(dp33
g16
F0.40672948956489563
sg17
V dog
p34
sbasbag1
(g2
g6
Ntp35
Rp36
(dp37
g10
(lp38
g1
(g12
g6
Ntp39
Rp40
(dp41
g16
F0.40462952852249146
sg17
V ear
p42
sbasbag1
(g2
g6
Ntp43
Rp44
(dp45
g10
(lp46
g1
(g12
g6
Ntp47
Rp48
(dp49
g16
F0.4374283254146576
sg17
V kitchen
p50
sbasbag1
(g2
g6
Ntp51
Rp52
(dp53
g10
(lp54
g1
(g12
g6
Ntp55
Rp56
(dp57
g16
F0.3906523883342743
sg17
V eponymous
p58
sbasbag1
(g2
g6
Ntp59
Rp60
(dp61
g10
(lp62
g1
(g12
g6
Ntp63
Rp64
(dp65
g16
F0.5446218252182007
sg17
V gazebo
p66
sbasbag1
(g2
g6
Ntp67
Rp68
(dp69
g10
(lp70
g1
(g12
g6
Ntp71
Rp72
(dp73
g16
F0.41319310665130615
sg17
V heart
p74
sbasba.